target datalayout = "e-m:e-p270:32:32-p271:32:32-p272:64:64-i64:64-i128:128-f80:128-n8:16:32:64-S128"
target triple = "x86_64-pc-linux-gnu"

%struct.expert_info_s = type { i32, i32, i32, i32, ptr, ptr, ptr }
%"class.QtPrivate::RefCount" = type { %class.QBasicAtomicInteger }
%class.QBasicAtomicInteger = type { %"struct.std::atomic" }
%"struct.std::atomic" = type { %"struct.std::__atomic_base" }
%"struct.std::__atomic_base" = type { i32 }
%class.ExpertInfoModel = type { %class.QAbstractItemModel, ptr, i8, ptr, %class.QHash.2 }
%class.QAbstractItemModel = type { %class.QObject }
%class.QObject = type { ptr, %class.QScopedPointer }
%class.QScopedPointer = type { ptr }
%class.QHash.2 = type { ptr }
%"struct.QHashPrivate::Data.25" = type { %"class.QtPrivate::RefCount", i64, i64, i64, ptr }
%"struct.QHashPrivate::Span.26" = type <{ [128 x i8], ptr, i8, i8, [6 x i8] }>

@_ZZN15ExpertInfoModel14createRootItemEvE8rootName = internal global ptr @.str.2, align 8
@_ZZN15ExpertInfoModel14createRootItemEvE11root_expert = internal global %struct.expert_info_s zeroinitializer, align 8
@_ZGVZN15ExpertInfoModel14createRootItemEvE11root_expert = internal global i64 0, align 8
@.str.5 = private unnamed_addr constant [88 x i8] c"generated/usr/lib/gcc/x86_64-linux-gnu/12/../../../../include/c++/12/bits/atomic_base.h\00", align 1
@__PRETTY_FUNCTION__._ZNKSt13__atomic_baseIiE4loadESt12memory_order = private unnamed_addr constant [74 x i8] c"__int_type std::__atomic_base<int>::load(memory_order) const [_ITp = int]\00", align 1
@.str.6 = private unnamed_addr constant [28 x i8] c"__b != memory_order_release\00", align 1
@.str.7 = private unnamed_addr constant [28 x i8] c"__b != memory_order_acq_rel\00", align 1
@_ZN16ExpertPacketItemC1ERK13expert_info_sP16epan_column_infoPS_ = unnamed_addr alias void (ptr, ptr, ptr, ptr), ptr @_ZN16ExpertPacketItemC2ERK13expert_info_sP16epan_column_infoPS_

; Function Attrs: noinline noreturn nounwind null_pointer_is_valid sspstrong uwtable
define linkonce_odr hidden void @__clang_call_terminate(ptr noundef %0) #5 comdat {
  %2 = call ptr @__cxa_begin_catch(ptr %0) #10
  call void @_ZSt9terminatev() #26
  unreachable
}

; Function Attrs: mustprogress nounwind null_pointer_is_valid sspstrong uwtable
define linkonce_odr noundef i32 @_ZStanSt12memory_orderSt23__memory_order_modifier(i32 noundef %0, i32 noundef %1) #3 comdat {
  %3 = alloca i32, align 4
  %4 = alloca i32, align 4
  store i32 %0, ptr %3, align 4
  store i32 %1, ptr %4, align 4
  %5 = load i32, ptr %3, align 4
  %6 = load i32, ptr %4, align 4
  %7 = and i32 %5, %6
  ret i32 %7
}

; Function Attrs: mustprogress nounwind null_pointer_is_valid sspstrong uwtable
define linkonce_odr noundef i32 @_ZNSt13__atomic_baseIiEmmEv(ptr noundef align 4 dereferenceable_or_null(4) %0) #3 comdat align 2 {
  %2 = alloca ptr, align 8
  %3 = alloca i32, align 4
  %4 = alloca i32, align 4
  store ptr %0, ptr %2, align 8
  %5 = load ptr, ptr %2, align 8
  %6 = getelementptr inbounds nuw %"struct.std::__atomic_base", ptr %5, i32 0, i32 0
  store i32 1, ptr %3, align 4
  %7 = load i32, ptr %3, align 4
  %8 = atomicrmw sub ptr %6, i32 %7 seq_cst, align 4
  %9 = sub i32 %8, %7
  store i32 %9, ptr %4, align 4
  %10 = load i32, ptr %4, align 4
  ret i32 %10
}

; Function Attrs: alwaysinline mustprogress nounwind null_pointer_is_valid sspstrong uwtable
define linkonce_odr noundef i32 @_ZNKSt13__atomic_baseIiE4loadESt12memory_order(ptr noundef align 4 dereferenceable_or_null(4) %0, i32 noundef %1) #7 comdat align 2 personality ptr @__gxx_personality_v0 {
  %3 = alloca ptr, align 8
  %4 = alloca i32, align 4
  %5 = alloca i32, align 4
  %6 = alloca i32, align 4
  store ptr %0, ptr %3, align 8
  store i32 %1, ptr %4, align 4
  %7 = load ptr, ptr %3, align 8
  call void @llvm.lifetime.start.p0(i64 4, ptr %5) #10
  %8 = load i32, ptr %4, align 4
  %9 = invoke noundef i32 @_ZStanSt12memory_orderSt23__memory_order_modifier(i32 noundef %8, i32 noundef 65535)
          to label %10 unwind label %43

10:                                               ; preds = %2
  store i32 %9, ptr %5, align 4
  br label %11

11:                                               ; preds = %10
  %12 = load i32, ptr %5, align 4
  %13 = icmp ne i32 %12, 3
  %14 = xor i1 %13, true
  %15 = zext i1 %14 to i64
  %16 = call i64 @llvm.expect.i64(i64 %15, i64 0)
  %17 = icmp ne i64 %16, 0
  br i1 %17, label %18, label %19

18:                                               ; preds = %11
  call void @_ZSt21__glibcxx_assert_failPKciS0_S0_(ptr noundef @.str.5, i32 noundef 485, ptr noundef @__PRETTY_FUNCTION__._ZNKSt13__atomic_baseIiE4loadESt12memory_order, ptr noundef @.str.6) #26
  unreachable

19:                                               ; preds = %11
  br label %20

20:                                               ; preds = %19
  br label %21

21:                                               ; preds = %20
  br label %22

22:                                               ; preds = %21
  %23 = load i32, ptr %5, align 4
  %24 = icmp ne i32 %23, 4
  %25 = xor i1 %24, true
  %26 = zext i1 %25 to i64
  %27 = call i64 @llvm.expect.i64(i64 %26, i64 0)
  %28 = icmp ne i64 %27, 0
  br i1 %28, label %29, label %30

29:                                               ; preds = %22
  call void @_ZSt21__glibcxx_assert_failPKciS0_S0_(ptr noundef @.str.5, i32 noundef 486, ptr noundef @__PRETTY_FUNCTION__._ZNKSt13__atomic_baseIiE4loadESt12memory_order, ptr noundef @.str.7) #26
  unreachable

30:                                               ; preds = %22
  br label %31

31:                                               ; preds = %30
  br label %32

32:                                               ; preds = %31
  %33 = getelementptr inbounds nuw %"struct.std::__atomic_base", ptr %7, i32 0, i32 0
  %34 = load i32, ptr %4, align 4
  switch i32 %34, label %35 [
    i32 1, label %37
    i32 2, label %37
    i32 5, label %39
  ]

35:                                               ; preds = %32
  %36 = load atomic i32, ptr %33 monotonic, align 4
  store i32 %36, ptr %6, align 4
  br label %41

37:                                               ; preds = %32, %32
  %38 = load atomic i32, ptr %33 acquire, align 4
  store i32 %38, ptr %6, align 4
  br label %41

39:                                               ; preds = %32
  %40 = load atomic i32, ptr %33 seq_cst, align 4
  store i32 %40, ptr %6, align 4
  br label %41

41:                                               ; preds = %39, %37, %35
  %42 = load i32, ptr %6, align 4
  call void @llvm.lifetime.end.p0(i64 4, ptr %5) #10
  ret i32 %42

43:                                               ; preds = %2
  %44 = landingpad { ptr, i32 }
          catch ptr null
  %45 = extractvalue { ptr, i32 } %44, 0
  call void @__clang_call_terminate(ptr %45) #26
  unreachable
}

; Function Attrs: mustprogress nounwind null_pointer_is_valid sspstrong uwtable
define linkonce_odr void @_ZN12QHashPrivate4SpanINS_4NodeIN15ExpertInfoModel14ExpertSeverityEiEEE8freeDataEv(ptr noundef align 8 dereferenceable_or_null(138) %0) #3 comdat align 2 {
  %2 = alloca ptr, align 8
  store ptr %0, ptr %2, align 8
  %3 = load ptr, ptr %2, align 8
  %4 = getelementptr inbounds nuw %"struct.QHashPrivate::Span.26", ptr %3, i32 0, i32 1
  %5 = load ptr, ptr %4, align 8
  %6 = icmp ne ptr %5, null
  br i1 %6, label %7, label %14

7:                                                ; preds = %1
  %8 = getelementptr inbounds nuw %"struct.QHashPrivate::Span.26", ptr %3, i32 0, i32 1
  %9 = load ptr, ptr %8, align 8
  %10 = icmp eq ptr %9, null
  br i1 %10, label %12, label %11

11:                                               ; preds = %7
  call void @_ZdaPv(ptr noundef %9) #25
  br label %12

12:                                               ; preds = %11, %7
  %13 = getelementptr inbounds nuw %"struct.QHashPrivate::Span.26", ptr %3, i32 0, i32 1
  store ptr null, ptr %13, align 8
  br label %14

14:                                               ; preds = %12, %1
  ret void
}

; Function Attrs: inlinehint mustprogress nounwind null_pointer_is_valid sspstrong uwtable
define linkonce_odr noundef zeroext i1 @_ZN10QAtomicOpsIiE5derefIiEEbRSt6atomicIT_E(ptr noundef align 4 dereferenceable(4) %0) #2 comdat align 2 {
  %2 = alloca ptr, align 8
  store ptr %0, ptr %2, align 8
  %3 = load ptr, ptr %2, align 8
  %4 = call noundef i32 @_ZNSt13__atomic_baseIiEmmEv(ptr noundef align 4 dereferenceable_or_null(4) %3) #10
  %5 = icmp ne i32 %4, 0
  ret i1 %5
}

; Function Attrs: inlinehint mustprogress nounwind null_pointer_is_valid sspstrong uwtable
define linkonce_odr noundef i32 @_ZN10QAtomicOpsIiE11loadRelaxedIiEET_RKSt6atomicIS2_E(ptr noundef align 4 dereferenceable(4) %0) #2 comdat align 2 {
  %2 = alloca ptr, align 8
  store ptr %0, ptr %2, align 8
  %3 = load ptr, ptr %2, align 8
  %4 = call noundef i32 @_ZNKSt13__atomic_baseIiE4loadESt12memory_order(ptr noundef align 4 dereferenceable_or_null(4) %3, i32 noundef 0) #10
  ret i32 %4
}

; Function Attrs: mustprogress nounwind null_pointer_is_valid sspstrong uwtable
define linkonce_odr void @_ZN12QHashPrivate4SpanINS_4NodeIN15ExpertInfoModel14ExpertSeverityEiEEED2Ev(ptr noundef align 8 dereferenceable_or_null(138) %0) unnamed_addr #3 comdat align 2 {
  %2 = alloca ptr, align 8
  store ptr %0, ptr %2, align 8
  %3 = load ptr, ptr %2, align 8
  call void @_ZN12QHashPrivate4SpanINS_4NodeIN15ExpertInfoModel14ExpertSeverityEiEEE8freeDataEv(ptr noundef align 8 dereferenceable_or_null(138) %3) #10
  ret void
}

; Function Attrs: mustprogress nounwind null_pointer_is_valid sspstrong uwtable
define linkonce_odr noundef zeroext i1 @_ZN19QBasicAtomicIntegerIiE5derefEv(ptr noundef align 4 dereferenceable_or_null(4) %0) #3 comdat align 2 {
  %2 = alloca ptr, align 8
  store ptr %0, ptr %2, align 8
  %3 = load ptr, ptr %2, align 8
  %4 = getelementptr inbounds nuw %class.QBasicAtomicInteger, ptr %3, i32 0, i32 0
  %5 = call noundef zeroext i1 @_ZN10QAtomicOpsIiE5derefIiEEbRSt6atomicIT_E(ptr noundef align 4 dereferenceable(4) %4) #10
  ret i1 %5
}

; Function Attrs: mustprogress nounwind null_pointer_is_valid sspstrong uwtable
define linkonce_odr noundef i32 @_ZNK19QBasicAtomicIntegerIiE11loadRelaxedEv(ptr noundef align 4 dereferenceable_or_null(4) %0) #3 comdat align 2 {
  %2 = alloca ptr, align 8
  store ptr %0, ptr %2, align 8
  %3 = load ptr, ptr %2, align 8
  %4 = getelementptr inbounds nuw %class.QBasicAtomicInteger, ptr %3, i32 0, i32 0
  %5 = call noundef i32 @_ZN10QAtomicOpsIiE11loadRelaxedIiEET_RKSt6atomicIS2_E(ptr noundef align 4 dereferenceable(4) %4) #10
  ret i32 %5
}

; Function Attrs: mustprogress nounwind null_pointer_is_valid sspstrong uwtable
define linkonce_odr void @_ZN12QHashPrivate4DataINS_4NodeIN15ExpertInfoModel14ExpertSeverityEiEEED2Ev(ptr noundef align 8 dereferenceable_or_null(40) %0) unnamed_addr #3 comdat align 2 {
  %2 = alloca ptr, align 8
  store ptr %0, ptr %2, align 8
  %3 = load ptr, ptr %2, align 8
  %4 = getelementptr inbounds nuw %"struct.QHashPrivate::Data.25", ptr %3, i32 0, i32 4
  %5 = load ptr, ptr %4, align 8
  %6 = icmp eq ptr %5, null
  br i1 %6, label %19, label %7

7:                                                ; preds = %1
  %8 = getelementptr inbounds i8, ptr %5, i64 -8
  %9 = load i64, ptr %8, align 8
  %10 = getelementptr inbounds %"struct.QHashPrivate::Span.26", ptr %5, i64 %9
  %11 = icmp eq ptr %5, %10
  br i1 %11, label %16, label %12

12:                                               ; preds = %12, %7
  %13 = phi ptr [ %10, %7 ], [ %14, %12 ]
  %14 = getelementptr inbounds %"struct.QHashPrivate::Span.26", ptr %13, i64 -1
  call void @_ZN12QHashPrivate4SpanINS_4NodeIN15ExpertInfoModel14ExpertSeverityEiEEED2Ev(ptr noundef align 8 dereferenceable_or_null(138) %14) #10
  %15 = icmp eq ptr %14, %5
  br i1 %15, label %16, label %12

16:                                               ; preds = %12, %7
  %17 = mul i64 144, %9
  %18 = add i64 %17, 8
  call void @_ZdaPvm(ptr noundef %8, i64 noundef %18) #25
  br label %19

19:                                               ; preds = %16, %1
  ret void
}

; Function Attrs: inlinehint mustprogress nounwind null_pointer_is_valid sspstrong uwtable
define linkonce_odr noundef zeroext i1 @_ZN9QtPrivate8RefCount5derefEv(ptr noundef align 4 dereferenceable_or_null(4) %0) #2 comdat align 2 {
  %2 = alloca i1, align 1
  %3 = alloca ptr, align 8
  %4 = alloca i32, align 4
  %5 = alloca i32, align 4
  store ptr %0, ptr %3, align 8
  %6 = load ptr, ptr %3, align 8
  call void @llvm.lifetime.start.p0(i64 4, ptr %4) #10
  %7 = getelementptr inbounds nuw %"class.QtPrivate::RefCount", ptr %6, i32 0, i32 0
  %8 = call noundef i32 @_ZNK19QBasicAtomicIntegerIiE11loadRelaxedEv(ptr noundef align 4 dereferenceable_or_null(4) %7) #10
  store i32 %8, ptr %4, align 4
  %9 = load i32, ptr %4, align 4
  %10 = icmp eq i32 %9, -1
  br i1 %10, label %11, label %12

11:                                               ; preds = %1
  store i1 true, ptr %2, align 1
  store i32 1, ptr %5, align 4
  br label %15

12:                                               ; preds = %1
  %13 = getelementptr inbounds nuw %"class.QtPrivate::RefCount", ptr %6, i32 0, i32 0
  %14 = call noundef zeroext i1 @_ZN19QBasicAtomicIntegerIiE5derefEv(ptr noundef align 4 dereferenceable_or_null(4) %13) #10
  store i1 %14, ptr %2, align 1
  store i32 1, ptr %5, align 4
  br label %15

15:                                               ; preds = %12, %11
  call void @llvm.lifetime.end.p0(i64 4, ptr %4) #10
  %16 = load i1, ptr %2, align 1
  ret i1 %16
}

; Function Attrs: mustprogress null_pointer_is_valid sspstrong uwtable
define noundef ptr @_ZN15ExpertInfoModel14createRootItemEv(ptr noundef align 8 dereferenceable_or_null(48) %0) #0 align 2 personality ptr @__gxx_personality_v0 {
  %2 = alloca ptr, align 8
  %3 = alloca ptr, align 8
  %4 = alloca i32, align 4
  store ptr %0, ptr %2, align 8
  %5 = load atomic i8, ptr @_ZGVZN15ExpertInfoModel14createRootItemEvE11root_expert acquire, align 8
  %6 = icmp eq i8 %5, 0
  br i1 %6, label %7, label %13, !prof !10

7:                                                ; preds = %1
  %8 = call i32 @__cxa_guard_acquire(ptr @_ZGVZN15ExpertInfoModel14createRootItemEvE11root_expert) #10
  %9 = icmp ne i32 %8, 0
  br i1 %9, label %10, label %13

10:                                               ; preds = %7
  store i32 0, ptr @_ZZN15ExpertInfoModel14createRootItemEvE11root_expert, align 8
  store i32 -1, ptr getelementptr inbounds nuw (%struct.expert_info_s, ptr @_ZZN15ExpertInfoModel14createRootItemEvE11root_expert, i32 0, i32 1), align 4
  store i32 -1, ptr getelementptr inbounds nuw (%struct.expert_info_s, ptr @_ZZN15ExpertInfoModel14createRootItemEvE11root_expert, i32 0, i32 2), align 8
  store i32 -1, ptr getelementptr inbounds nuw (%struct.expert_info_s, ptr @_ZZN15ExpertInfoModel14createRootItemEvE11root_expert, i32 0, i32 3), align 4
  %11 = load ptr, ptr @_ZZN15ExpertInfoModel14createRootItemEvE8rootName, align 8
  store ptr %11, ptr getelementptr inbounds nuw (%struct.expert_info_s, ptr @_ZZN15ExpertInfoModel14createRootItemEvE11root_expert, i32 0, i32 4), align 8
  %12 = load ptr, ptr @_ZZN15ExpertInfoModel14createRootItemEvE8rootName, align 8
  store ptr %12, ptr getelementptr inbounds nuw (%struct.expert_info_s, ptr @_ZZN15ExpertInfoModel14createRootItemEvE11root_expert, i32 0, i32 5), align 8
  store ptr null, ptr getelementptr inbounds nuw (%struct.expert_info_s, ptr @_ZZN15ExpertInfoModel14createRootItemEvE11root_expert, i32 0, i32 6), align 8
  call void @__cxa_guard_release(ptr @_ZGVZN15ExpertInfoModel14createRootItemEvE11root_expert) #10
  br label %13

13:                                               ; preds = %10, %7, %1
  %14 = call noalias noundef ptr @_Znwm(i64 noundef 136) #27
  invoke void @_ZN16ExpertPacketItemC1ERK13expert_info_sP16epan_column_infoPS_(ptr noundef align 8 dereferenceable_or_null(136) %14, ptr noundef align 8 dereferenceable(40) @_ZZN15ExpertInfoModel14createRootItemEvE11root_expert, ptr noundef null, ptr noundef null)
          to label %15 unwind label %16

15:                                               ; preds = %13
  ret ptr %14

16:                                               ; preds = %13
  %17 = landingpad { ptr, i32 }
          cleanup
  %18 = extractvalue { ptr, i32 } %17, 0
  store ptr %18, ptr %3, align 8
  %19 = extractvalue { ptr, i32 } %17, 1
  store i32 %19, ptr %4, align 4
  call void @_ZdlPvm(ptr noundef %14, i64 noundef 136) #25
  br label %20

20:                                               ; preds = %16
  %21 = load ptr, ptr %3, align 8
  %22 = load i32, ptr %4, align 4
  %23 = insertvalue { ptr, i32 } poison, ptr %21, 0
  %24 = insertvalue { ptr, i32 } %23, i32 %22, 1
  resume { ptr, i32 } %24
}

; Function Attrs: mustprogress nounwind null_pointer_is_valid sspstrong uwtable
define linkonce_odr void @_ZN5QHashIN15ExpertInfoModel14ExpertSeverityEiE5clearEv(ptr noundef align 8 dereferenceable_or_null(8) %0) #3 comdat align 2 {
  %2 = alloca ptr, align 8
  store ptr %0, ptr %2, align 8
  %3 = load ptr, ptr %2, align 8
  %4 = getelementptr inbounds nuw %class.QHash.2, ptr %3, i32 0, i32 0
  %5 = load ptr, ptr %4, align 8
  %6 = icmp ne ptr %5, null
  br i1 %6, label %7, label %18

7:                                                ; preds = %1
  %8 = getelementptr inbounds nuw %class.QHash.2, ptr %3, i32 0, i32 0
  %9 = load ptr, ptr %8, align 8
  %10 = getelementptr inbounds nuw %"struct.QHashPrivate::Data.25", ptr %9, i32 0, i32 0
  %11 = call noundef zeroext i1 @_ZN9QtPrivate8RefCount5derefEv(ptr noundef align 4 dereferenceable_or_null(4) %10) #10
  br i1 %11, label %18, label %12

12:                                               ; preds = %7
  %13 = getelementptr inbounds nuw %class.QHash.2, ptr %3, i32 0, i32 0
  %14 = load ptr, ptr %13, align 8
  %15 = icmp eq ptr %14, null
  br i1 %15, label %17, label %16

16:                                               ; preds = %12
  call void @_ZN12QHashPrivate4DataINS_4NodeIN15ExpertInfoModel14ExpertSeverityEiEEED2Ev(ptr noundef align 8 dereferenceable_or_null(40) %14) #10
  call void @_ZdlPvm(ptr noundef %14, i64 noundef 40) #25
  br label %17

17:                                               ; preds = %16, %12
  br label %18

18:                                               ; preds = %17, %7, %1
  %19 = getelementptr inbounds nuw %class.QHash.2, ptr %3, i32 0, i32 0
  store ptr null, ptr %19, align 8
  ret void
}

; Function Attrs: mustprogress null_pointer_is_valid sspstrong uwtable
define void @_ZN15ExpertInfoModel5clearEv(ptr noundef align 8 dereferenceable_or_null(48) %0) #0 align 2 {
  %2 = alloca ptr, align 8
  store ptr %0, ptr %2, align 8
  %3 = load ptr, ptr %2, align 8
  call void @_ZN18QAbstractItemModel15beginResetModelEv(ptr noundef align 8 dereferenceable_or_null(16) %3)
  %4 = getelementptr inbounds nuw %class.ExpertInfoModel, ptr %3, i32 0, i32 4
  call void @_ZN5QHashIN15ExpertInfoModel14ExpertSeverityEiE5clearEv(ptr noundef align 8 dereferenceable_or_null(8) %4) #10
  %5 = getelementptr inbounds nuw %class.ExpertInfoModel, ptr %3, i32 0, i32 3
  %6 = load ptr, ptr %5, align 8
  %7 = icmp eq ptr %6, null
  br i1 %7, label %12, label %8

8:                                                ; preds = %1
  %9 = load ptr, ptr %6, align 8
  %10 = getelementptr inbounds ptr, ptr %9, i64 1
  %11 = load ptr, ptr %10, align 8
  call void %11(ptr noundef align 8 dereferenceable_or_null(136) %6) #10
  br label %12

12:                                               ; preds = %8, %1
  %13 = call noundef ptr @_ZN15ExpertInfoModel14createRootItemEv(ptr noundef align 8 dereferenceable_or_null(48) %3)
  %14 = getelementptr inbounds nuw %class.ExpertInfoModel, ptr %3, i32 0, i32 3
  store ptr %13, ptr %14, align 8
  call void @_ZN18QAbstractItemModel13endResetModelEv(ptr noundef align 8 dereferenceable_or_null(16) %3)
  ret void
}