; Function Attrs: mustprogress null_pointer_is_valid sspstrong uwtable
define void @_ZN15ExpertInfoModel5clearEv(ptr noundef align 8 dereferenceable_or_null(48) %0) local_unnamed_addr #0 align 2 personality ptr @__gxx_personality_v0 {
  tail call void @_ZN18QAbstractItemModel15beginResetModelEv(ptr noundef align 8 dereferenceable_or_null(16) %0)
  %2 = getelementptr inbounds nuw i8, ptr %0, i64 40
  %3 = load ptr, ptr %2, align 8
  %.not.i = icmp eq ptr %3, null
  br i1 %.not.i, label %_ZN5QHashIN15ExpertInfoModel14ExpertSeverityEiE5clearEv.exit, label %4

4:                                                ; preds = %1
  %5 = load atomic i32, ptr %3 monotonic, align 4
  %6 = icmp eq i32 %5, -1
  br i1 %6, label %_ZN5QHashIN15ExpertInfoModel14ExpertSeverityEiE5clearEv.exit, label %_ZN9QtPrivate8RefCount5derefEv.exit.i

_ZN9QtPrivate8RefCount5derefEv.exit.i:            ; preds = %4
  %7 = atomicrmw sub ptr %3, i32 1 seq_cst, align 4
  %.not3.i = icmp eq i32 %7, 1
  br i1 %.not3.i, label %8, label %_ZN5QHashIN15ExpertInfoModel14ExpertSeverityEiE5clearEv.exit

8:                                                ; preds = %_ZN9QtPrivate8RefCount5derefEv.exit.i
  %9 = load ptr, ptr %2, align 8
  %10 = icmp eq ptr %9, null
  br i1 %10, label %_ZN5QHashIN15ExpertInfoModel14ExpertSeverityEiE5clearEv.exit, label %11

11:                                               ; preds = %8
  %12 = getelementptr inbounds nuw i8, ptr %9, i64 32
  %13 = load ptr, ptr %12, align 8
  %14 = icmp eq ptr %13, null
  br i1 %14, label %_ZN12QHashPrivate4DataINS_4NodeIN15ExpertInfoModel14ExpertSeverityEiEEED2Ev.exit.i, label %15

15:                                               ; preds = %11
  %16 = getelementptr inbounds i8, ptr %13, i64 -8
  %17 = load i64, ptr %16, align 8
  %18 = icmp eq i64 %17, 0
  br i1 %18, label %.loopexit.i.i, label %.preheader.preheader.i.i

.preheader.preheader.i.i:                         ; preds = %15
  %19 = getelementptr inbounds %"struct.QHashPrivate::Span.26", ptr %13, i64 %17
  br label %.preheader.i.i

.preheader.i.i:                                   ; preds = %_ZN12QHashPrivate4SpanINS_4NodeIN15ExpertInfoModel14ExpertSeverityEiEEED2Ev.exit.i.i, %.preheader.preheader.i.i
  %20 = phi ptr [ %21, %_ZN12QHashPrivate4SpanINS_4NodeIN15ExpertInfoModel14ExpertSeverityEiEEED2Ev.exit.i.i ], [ %19, %.preheader.preheader.i.i ]
  %21 = getelementptr inbounds i8, ptr %20, i64 -144
  %22 = getelementptr inbounds i8, ptr %20, i64 -16
  %23 = load ptr, ptr %22, align 8
  %.not.i.i.i.i = icmp eq ptr %23, null
  br i1 %.not.i.i.i.i, label %_ZN12QHashPrivate4SpanINS_4NodeIN15ExpertInfoModel14ExpertSeverityEiEEED2Ev.exit.i.i, label %24

24:                                               ; preds = %.preheader.i.i
  tail call void @_ZdaPv(ptr noundef nonnull %23) #27
  store ptr null, ptr %22, align 8
  br label %_ZN12QHashPrivate4SpanINS_4NodeIN15ExpertInfoModel14ExpertSeverityEiEEED2Ev.exit.i.i

_ZN12QHashPrivate4SpanINS_4NodeIN15ExpertInfoModel14ExpertSeverityEiEEED2Ev.exit.i.i: ; preds = %24, %.preheader.i.i
  %25 = icmp eq ptr %21, %13
  br i1 %25, label %.loopexit.i.i, label %.preheader.i.i

.loopexit.i.i:                                    ; preds = %_ZN12QHashPrivate4SpanINS_4NodeIN15ExpertInfoModel14ExpertSeverityEiEEED2Ev.exit.i.i, %15
  %26 = mul i64 %17, 144
  %27 = or disjoint i64 %26, 8
  tail call void @_ZdaPvm(ptr noundef %16, i64 noundef %27) #27
  br label %_ZN12QHashPrivate4DataINS_4NodeIN15ExpertInfoModel14ExpertSeverityEiEEED2Ev.exit.i

_ZN12QHashPrivate4DataINS_4NodeIN15ExpertInfoModel14ExpertSeverityEiEEED2Ev.exit.i: ; preds = %.loopexit.i.i, %11
  tail call void @_ZdlPvm(ptr noundef %9, i64 noundef 40) #27
  br label %_ZN5QHashIN15ExpertInfoModel14ExpertSeverityEiE5clearEv.exit

_ZN5QHashIN15ExpertInfoModel14ExpertSeverityEiE5clearEv.exit: ; preds = %1, %4, %_ZN9QtPrivate8RefCount5derefEv.exit.i, %8, %_ZN12QHashPrivate4DataINS_4NodeIN15ExpertInfoModel14ExpertSeverityEiEEED2Ev.exit.i
  store ptr null, ptr %2, align 8
  %28 = getelementptr inbounds nuw i8, ptr %0, i64 32
  %29 = load ptr, ptr %28, align 8
  %30 = icmp eq ptr %29, null
  br i1 %30, label %35, label %31

31:                                               ; preds = %_ZN5QHashIN15ExpertInfoModel14ExpertSeverityEiE5clearEv.exit
  %32 = load ptr, ptr %29, align 8
  %33 = getelementptr inbounds nuw i8, ptr %32, i64 8
  %34 = load ptr, ptr %33, align 8
  tail call void %34(ptr noundef nonnull align 8 dereferenceable_or_null(136) %29) #26
  br label %35

35:                                               ; preds = %31, %_ZN5QHashIN15ExpertInfoModel14ExpertSeverityEiE5clearEv.exit
  %36 = load atomic i8, ptr @_ZGVZN15ExpertInfoModel14createRootItemEvE11root_expert acquire, align 8
  %37 = icmp eq i8 %36, 0
  br i1 %37, label %38, label %41, !prof !14

38:                                               ; preds = %35
  %39 = tail call i32 @__cxa_guard_acquire(ptr nonnull @_ZGVZN15ExpertInfoModel14createRootItemEvE11root_expert) #26
  %.not.i1 = icmp eq i32 %39, 0
  br i1 %.not.i1, label %41, label %40

40:                                               ; preds = %38
  store i32 0, ptr @_ZZN15ExpertInfoModel14createRootItemEvE11root_expert, align 8
  store i32 -1, ptr getelementptr inbounds nuw (i8, ptr @_ZZN15ExpertInfoModel14createRootItemEvE11root_expert, i64 4), align 4
  store i32 -1, ptr getelementptr inbounds nuw (i8, ptr @_ZZN15ExpertInfoModel14createRootItemEvE11root_expert, i64 8), align 8
  store i32 -1, ptr getelementptr inbounds nuw (i8, ptr @_ZZN15ExpertInfoModel14createRootItemEvE11root_expert, i64 12), align 4
  store ptr @.str.2, ptr getelementptr inbounds nuw (i8, ptr @_ZZN15ExpertInfoModel14createRootItemEvE11root_expert, i64 16), align 8
  store ptr @.str.2, ptr getelementptr inbounds nuw (i8, ptr @_ZZN15ExpertInfoModel14createRootItemEvE11root_expert, i64 24), align 8
  store ptr null, ptr getelementptr inbounds nuw (i8, ptr @_ZZN15ExpertInfoModel14createRootItemEvE11root_expert, i64 32), align 8
  tail call void @__cxa_guard_release(ptr nonnull @_ZGVZN15ExpertInfoModel14createRootItemEvE11root_expert) #26
  br label %41

41:                                               ; preds = %40, %38, %35
  %42 = tail call noalias noundef dereferenceable_or_null(136) ptr @_Znwm(i64 noundef 136) #29
  invoke void @_ZN16ExpertPacketItemC1ERK13expert_info_sP16epan_column_infoPS_(ptr noundef align 8 dereferenceable_or_null(136) %42, ptr noundef nonnull align 8 dereferenceable(40) @_ZZN15ExpertInfoModel14createRootItemEvE11root_expert, ptr noundef null, ptr noundef null)
          to label %_ZN15ExpertInfoModel14createRootItemEv.exit unwind label %43

43:                                               ; preds = %41
  %44 = landingpad { ptr, i32 }
          cleanup
  tail call void @_ZdlPvm(ptr noundef %42, i64 noundef 136) #27
  resume { ptr, i32 } %44

_ZN15ExpertInfoModel14createRootItemEv.exit:      ; preds = %41
  store ptr %42, ptr %28, align 8
  tail call void @_ZN18QAbstractItemModel13endResetModelEv(ptr noundef align 8 dereferenceable_or_null(16) %0)
  ret void
}